target datalayout = "e-m:e-p270:32:32-p271:32:32-p272:64:64-i64:64-i128:128-f80:128-n8:16:32:64-S128"
target triple = "x86_64-pc-linux-gnu"

%struct.manifest_files_hash = type { i64, i32, i32, i32, ptr, ptr }
%struct.manifest_files_iterator = type { i32, i32, i8 }

; Function Attrs: nounwind uwtable
define dso_local void @manifest_files_start_iterate_at(ptr noundef %0, ptr noundef %1, i32 noundef %2) #0 {
  %4 = alloca ptr, align 8
  %5 = alloca ptr, align 8
  %6 = alloca i32, align 4
  store ptr %0, ptr %4, align 8
  store ptr %1, ptr %5, align 8
  store i32 %2, ptr %6, align 4
  %7 = load i32, ptr %6, align 4
  %8 = load ptr, ptr %4, align 8
  %9 = getelementptr inbounds nuw %struct.manifest_files_hash, ptr %8, i32 0, i32 2
  %10 = load i32, ptr %9, align 4
  %11 = and i32 %7, %10
  %12 = load ptr, ptr %5, align 8
  %13 = getelementptr inbounds nuw %struct.manifest_files_iterator, ptr %12, i32 0, i32 0
  store i32 %11, ptr %13, align 4
  %14 = load ptr, ptr %5, align 8
  %15 = getelementptr inbounds nuw %struct.manifest_files_iterator, ptr %14, i32 0, i32 0
  %16 = load i32, ptr %15, align 4
  %17 = load ptr, ptr %5, align 8
  %18 = getelementptr inbounds nuw %struct.manifest_files_iterator, ptr %17, i32 0, i32 1
  store i32 %16, ptr %18, align 4
  %19 = load ptr, ptr %5, align 8
  %20 = getelementptr inbounds nuw %struct.manifest_files_iterator, ptr %19, i32 0, i32 2
  store i8 0, ptr %20, align 4
  ret void
}