; Function Attrs: mustprogress nofree norecurse nosync nounwind willreturn memory(argmem: readwrite) uwtable
define dso_local void @manifest_files_start_iterate_at(ptr noundef readonly captures(none) %0, ptr noundef writeonly captures(none) initializes((0, 9)) %1, i32 noundef %2) local_unnamed_addr #13 {
  %4 = getelementptr inbounds nuw i8, ptr %0, i64 12
  %5 = load i32, ptr %4, align 4
  %6 = and i32 %5, %2
  store i32 %6, ptr %1, align 4
  %7 = getelementptr inbounds nuw i8, ptr %1, i64 4
  store i32 %6, ptr %7, align 4
  %8 = getelementptr inbounds nuw i8, ptr %1, i64 8
  store i8 0, ptr %8, align 4
  ret void
}